target datalayout = "e-m:e-p270:32:32-p271:32:32-p272:64:64-i64:64-i128:128-f80:128-n8:16:32:64-S128"
target triple = "x86_64-pc-linux-gnu"

%struct.expert_field = type { i32, i32 }

@hf_cbcp_callback_delay = internal global i32 0, align 4
@hf_cbcp_address_type = internal global i32 0, align 4
@hf_cbcp_address = internal global i32 0, align 4
@ett_cbcp_callback_opt_addr = internal global i32 0, align 4
@ei_cbcp_address = internal global %struct.expert_field zeroinitializer, align 4
@.str.1295 = private unnamed_addr constant [8 x i8] c"%s (%u)\00", align 1
@.str.1448 = private unnamed_addr constant [17 x i8] c"Callback Address\00", align 1
@.str.1449 = private unnamed_addr constant [10 x i8] c"PSTN/ISDN\00", align 1
@.str.1450 = private unnamed_addr constant [6 x i8] c"Other\00", align 1

; Function Attrs: null_pointer_is_valid sspstrong uwtable
define internal i32 @dissect_cbcp_callback_opt_common(ptr noundef %0, ptr noundef %1, ptr noundef %2, i32 noundef %3, i32 noundef %4) #1 {
  %6 = alloca ptr, align 8
  %7 = alloca ptr, align 8
  %8 = alloca ptr, align 8
  %9 = alloca i32, align 4
  %10 = alloca i32, align 4
  %11 = alloca ptr, align 8
  %12 = alloca ptr, align 8
  %13 = alloca i8, align 1
  %14 = alloca i32, align 4
  store ptr %0, ptr %6, align 8
  store ptr %1, ptr %7, align 8
  store ptr %2, ptr %8, align 8
  store i32 %3, ptr %9, align 4
  store i32 %4, ptr %10, align 4
  call void @llvm.lifetime.start.p0(i64 8, ptr %11) #6
  call void @llvm.lifetime.start.p0(i64 8, ptr %12) #6
  call void @llvm.lifetime.start.p0(i64 1, ptr %13) #6
  call void @llvm.lifetime.start.p0(i64 4, ptr %14) #6
  %15 = load ptr, ptr %8, align 8
  %16 = load i32, ptr @hf_cbcp_callback_delay, align 4
  %17 = load ptr, ptr %6, align 8
  %18 = load i32, ptr %9, align 4
  %19 = add i32 %18, 2
  %20 = call ptr @proto_tree_add_item(ptr noundef %15, i32 noundef %16, ptr noundef %17, i32 noundef %19, i32 noundef 1, i32 noundef 0)
  %21 = load i32, ptr %9, align 4
  %22 = add i32 %21, 3
  store i32 %22, ptr %9, align 4
  %23 = load i32, ptr %10, align 4
  %24 = sub i32 %23, 3
  store i32 %24, ptr %10, align 4
  br label %25

25:                                               ; preds = %65, %5
  %26 = load i32, ptr %10, align 4
  %27 = icmp sgt i32 %26, 0
  br i1 %27, label %28, label %78

28:                                               ; preds = %25
  %29 = load ptr, ptr %8, align 8
  %30 = load ptr, ptr %6, align 8
  %31 = load i32, ptr %9, align 4
  %32 = load i32, ptr %10, align 4
  %33 = load i32, ptr @ett_cbcp_callback_opt_addr, align 4
  %34 = call ptr @proto_tree_add_subtree(ptr noundef %29, ptr noundef %30, i32 noundef %31, i32 noundef %32, i32 noundef %33, ptr noundef null, ptr noundef @.str.1448)
  store ptr %34, ptr %11, align 8
  %35 = load ptr, ptr %6, align 8
  %36 = load i32, ptr %9, align 4
  %37 = call zeroext i8 @tvb_get_uint8(ptr noundef %35, i32 noundef %36)
  store i8 %37, ptr %13, align 1
  %38 = load ptr, ptr %11, align 8
  %39 = load i32, ptr @hf_cbcp_address_type, align 4
  %40 = load ptr, ptr %6, align 8
  %41 = load i32, ptr %9, align 4
  %42 = load i8, ptr %13, align 1
  %43 = zext i8 %42 to i32
  %44 = load i8, ptr %13, align 1
  %45 = zext i8 %44 to i32
  %46 = icmp eq i32 %45, 1
  %47 = select i1 %46, ptr @.str.1449, ptr @.str.1450
  %48 = load i8, ptr %13, align 1
  %49 = zext i8 %48 to i32
  %50 = call ptr (ptr, i32, ptr, i32, i32, i32, ptr, ...) @proto_tree_add_uint_format_value(ptr noundef %38, i32 noundef %39, ptr noundef %40, i32 noundef %41, i32 noundef 1, i32 noundef %43, ptr noundef @.str.1295, ptr noundef %47, i32 noundef %49)
  store ptr %50, ptr %12, align 8
  %51 = load i32, ptr %9, align 4
  %52 = add i32 %51, 1
  store i32 %52, ptr %9, align 4
  %53 = load i32, ptr %10, align 4
  %54 = add i32 %53, -1
  store i32 %54, ptr %10, align 4
  %55 = load ptr, ptr %6, align 8
  %56 = load i32, ptr %9, align 4
  %57 = call i32 @tvb_strsize(ptr noundef %55, i32 noundef %56)
  store i32 %57, ptr %14, align 4
  %58 = load i32, ptr %14, align 4
  %59 = load i32, ptr %10, align 4
  %60 = icmp ugt i32 %58, %59
  br i1 %60, label %61, label %65

61:                                               ; preds = %28
  %62 = load ptr, ptr %7, align 8
  %63 = load ptr, ptr %12, align 8
  %64 = call ptr @expert_add_info(ptr noundef %62, ptr noundef %63, ptr noundef @ei_cbcp_address)
  br label %78

65:                                               ; preds = %28
  %66 = load ptr, ptr %11, align 8
  %67 = load i32, ptr @hf_cbcp_address, align 4
  %68 = load ptr, ptr %6, align 8
  %69 = load i32, ptr %9, align 4
  %70 = load i32, ptr %14, align 4
  %71 = call ptr @proto_tree_add_item(ptr noundef %66, i32 noundef %67, ptr noundef %68, i32 noundef %69, i32 noundef %70, i32 noundef 0)
  %72 = load i32, ptr %14, align 4
  %73 = load i32, ptr %9, align 4
  %74 = add i32 %73, %72
  store i32 %74, ptr %9, align 4
  %75 = load i32, ptr %14, align 4
  %76 = load i32, ptr %10, align 4
  %77 = sub i32 %76, %75
  store i32 %77, ptr %10, align 4
  br label %25, !llvm.loop !22

78:                                               ; preds = %61, %25
  %79 = load ptr, ptr %6, align 8
  %80 = call i32 @tvb_captured_length(ptr noundef %79)
  call void @llvm.lifetime.end.p0(i64 4, ptr %14) #6
  call void @llvm.lifetime.end.p0(i64 1, ptr %13) #6
  call void @llvm.lifetime.end.p0(i64 8, ptr %12) #6
  call void @llvm.lifetime.end.p0(i64 8, ptr %11) #6
  ret i32 %80
}