; Function Attrs: null_pointer_is_valid sspstrong uwtable
define internal fastcc i32 @dissect_cbcp_callback_opt_common(ptr noundef %0, ptr noundef %1, ptr noundef %2, i32 noundef %3) unnamed_addr #1 {
  %5 = load i32, ptr @hf_cbcp_callback_delay, align 4
  %6 = tail call ptr @proto_tree_add_item(ptr noundef %2, i32 noundef %5, ptr noundef %0, i32 noundef 2, i32 noundef 1, i32 noundef 0)
  %7 = add i32 %3, -3
  %8 = icmp sgt i32 %7, 0
  br i1 %8, label %.lr.ph, label %.loopexit

.lr.ph:                                           ; preds = %4, %23
  %.038 = phi i32 [ %26, %23 ], [ 3, %4 ]
  %.03437 = phi i32 [ %27, %23 ], [ %7, %4 ]
  %9 = load i32, ptr @ett_cbcp_callback_opt_addr, align 4
  %10 = tail call ptr @proto_tree_add_subtree(ptr noundef %2, ptr noundef %0, i32 noundef %.038, i32 noundef %.03437, i32 noundef %9, ptr noundef null, ptr noundef nonnull @.str.1448)
  %11 = tail call zeroext i8 @tvb_get_uint8(ptr noundef %0, i32 noundef %.038)
  %12 = load i32, ptr @hf_cbcp_address_type, align 4
  %13 = zext i8 %11 to i32
  %14 = icmp eq i8 %11, 1
  %15 = select i1 %14, ptr @.str.1449, ptr @.str.1450
  %16 = tail call ptr (ptr, i32, ptr, i32, i32, i32, ptr, ...) @proto_tree_add_uint_format_value(ptr noundef %10, i32 noundef %12, ptr noundef %0, i32 noundef %.038, i32 noundef 1, i32 noundef %13, ptr noundef nonnull @.str.1295, ptr noundef nonnull %15, i32 noundef %13)
  %17 = add i32 %.038, 1
  %18 = add nsw i32 %.03437, -1
  %19 = tail call i32 @tvb_strsize(ptr noundef %0, i32 noundef %17)
  %20 = icmp ugt i32 %19, %18
  br i1 %20, label %21, label %23

21:                                               ; preds = %.lr.ph
  %22 = tail call ptr @expert_add_info(ptr noundef %1, ptr noundef %16, ptr noundef nonnull @ei_cbcp_address)
  br label %.loopexit

23:                                               ; preds = %.lr.ph
  %24 = load i32, ptr @hf_cbcp_address, align 4
  %25 = tail call ptr @proto_tree_add_item(ptr noundef %10, i32 noundef %24, ptr noundef %0, i32 noundef %17, i32 noundef %19, i32 noundef 0)
  %26 = add i32 %19, %17
  %27 = sub nuw nsw i32 %18, %19
  %28 = icmp sgt i32 %27, 0
  br i1 %28, label %.lr.ph, label %.loopexit, !llvm.loop !22

.loopexit:                                        ; preds = %23, %4, %21
  %29 = tail call i32 @tvb_captured_length(ptr noundef %0)
  ret i32 %29
}